target datalayout = "e-m:e-p270:32:32-p271:32:32-p272:64:64-i64:64-i128:128-f80:128-n8:16:32:64-S128"
target triple = "x86_64-pc-linux-gnu"

@stdout = external global ptr, align 8
@.str.76 = private unnamed_addr constant [4 x i8] c"%s\0A\00", align 1
@.str.207 = private unnamed_addr constant [10 x i8] c"localhost\00", align 1

; Function Attrs: nounwind uwtable
define internal void @_print_aliases(ptr noundef %0) #0 {
  %2 = alloca ptr, align 8
  %3 = alloca [64 x i8], align 16
  %4 = alloca ptr, align 8
  %5 = alloca ptr, align 8
  %6 = alloca ptr, align 8
  store ptr %0, ptr %2, align 8
  call void @llvm.lifetime.start.p0(i64 64, ptr %3) #12
  call void @llvm.lifetime.start.p0(i64 8, ptr %4) #12
  store ptr null, ptr %4, align 8
  call void @llvm.lifetime.start.p0(i64 8, ptr %5) #12
  store ptr null, ptr %5, align 8
  call void @llvm.lifetime.start.p0(i64 8, ptr %6) #12
  %7 = load ptr, ptr %2, align 8
  %8 = icmp ne ptr %7, null
  br i1 %8, label %13, label %9

9:                                                ; preds = %1
  %10 = getelementptr inbounds [64 x i8], ptr %3, i64 0, i64 0
  %11 = call i32 @gethostname_short(ptr noundef %10, i64 noundef 64)
  %12 = getelementptr inbounds [64 x i8], ptr %3, i64 0, i64 0
  store ptr %12, ptr %6, align 8
  br label %15

13:                                               ; preds = %1
  %14 = load ptr, ptr %2, align 8
  store ptr %14, ptr %6, align 8
  br label %15

15:                                               ; preds = %13, %9
  %16 = load ptr, ptr %6, align 8
  %17 = call ptr @slurm_conf_get_aliases(ptr noundef %16)
  store ptr %17, ptr %4, align 8
  %18 = icmp ne ptr %17, null
  br i1 %18, label %35, label %19

19:                                               ; preds = %15
  %20 = load ptr, ptr %6, align 8
  %21 = getelementptr inbounds [64 x i8], ptr %3, i64 0, i64 0
  %22 = icmp eq ptr %20, %21
  br i1 %22, label %23, label %35

23:                                               ; preds = %19
  %24 = call ptr @slurm_conf_get_aliased_nodename()
  store ptr %24, ptr %5, align 8
  %25 = icmp ne ptr %24, null
  br i1 %25, label %28, label %26

26:                                               ; preds = %23
  %27 = call ptr @slurm_conf_get_nodename(ptr noundef @.str.207)
  store ptr %27, ptr %5, align 8
  br label %28

28:                                               ; preds = %26, %23
  %29 = load ptr, ptr %5, align 8
  %30 = icmp ne ptr %29, null
  br i1 %30, label %31, label %34

31:                                               ; preds = %28
  %32 = load ptr, ptr %5, align 8
  %33 = call ptr @slurm_conf_get_aliases(ptr noundef %32)
  store ptr %33, ptr %4, align 8
  call void @slurm_xfree(ptr noundef %5)
  br label %34

34:                                               ; preds = %31, %28
  br label %35

35:                                               ; preds = %34, %19, %15
  %36 = load ptr, ptr %4, align 8
  %37 = icmp ne ptr %36, null
  br i1 %37, label %38, label %42

38:                                               ; preds = %35
  %39 = load ptr, ptr @stdout, align 8
  %40 = load ptr, ptr %4, align 8
  %41 = call i32 (ptr, ptr, ...) @fprintf(ptr noundef %39, ptr noundef @.str.76, ptr noundef %40) #12
  call void @slurm_xfree(ptr noundef %4)
  br label %42

42:                                               ; preds = %38, %35
  call void @llvm.lifetime.end.p0(i64 8, ptr %6) #12
  call void @llvm.lifetime.end.p0(i64 8, ptr %5) #12
  call void @llvm.lifetime.end.p0(i64 8, ptr %4) #12
  call void @llvm.lifetime.end.p0(i64 64, ptr %3) #12
  ret void
}