; Function Attrs: nounwind uwtable
define internal fastcc void @_print_aliases(ptr noundef %0) unnamed_addr #8 {
  %2 = alloca [64 x i8], align 16
  %3 = alloca ptr, align 8
  %4 = alloca ptr, align 8
  call void @llvm.lifetime.start.p0(i64 64, ptr nonnull %2) #18
  call void @llvm.lifetime.start.p0(i64 8, ptr nonnull %3) #18
  call void @llvm.lifetime.start.p0(i64 8, ptr nonnull %4) #18
  store ptr null, ptr %4, align 8
  %.not = icmp eq ptr %0, null
  br i1 %.not, label %5, label %7

5:                                                ; preds = %1
  %6 = call i32 @gethostname_short(ptr noundef nonnull %2, i64 noundef 64) #18
  br label %7

7:                                                ; preds = %1, %5
  %.0 = phi ptr [ %2, %5 ], [ %0, %1 ]
  %8 = call ptr @slurm_conf_get_aliases(ptr noundef nonnull %.0) #18
  store ptr %8, ptr %3, align 8
  %9 = icmp eq ptr %8, null
  %10 = icmp eq ptr %.0, %2
  %or.cond = and i1 %10, %9
  br i1 %or.cond, label %11, label %thread-pre-split

11:                                               ; preds = %7
  %12 = call ptr @slurm_conf_get_aliased_nodename() #18
  store ptr %12, ptr %4, align 8
  %.not9 = icmp eq ptr %12, null
  br i1 %.not9, label %13, label %.thread

13:                                               ; preds = %11
  %14 = call ptr @slurm_conf_get_nodename(ptr noundef nonnull @.str.207) #18
  store ptr %14, ptr %4, align 8
  %.not10 = icmp eq ptr %14, null
  br i1 %.not10, label %thread-pre-split.thread, label %.thread

.thread:                                          ; preds = %11, %13
  %15 = phi ptr [ %14, %13 ], [ %12, %11 ]
  %16 = call ptr @slurm_conf_get_aliases(ptr noundef nonnull %15) #18
  store ptr %16, ptr %3, align 8
  call void @slurm_xfree(ptr noundef nonnull %4) #18
  br label %thread-pre-split

thread-pre-split:                                 ; preds = %.thread, %7
  %17 = phi ptr [ %8, %7 ], [ %16, %.thread ]
  %.not11 = icmp eq ptr %17, null
  br i1 %.not11, label %thread-pre-split.thread, label %18

18:                                               ; preds = %thread-pre-split
  %19 = load ptr, ptr @stdout, align 8
  %20 = call i32 (ptr, ptr, ...) @fprintf(ptr noundef %19, ptr noundef nonnull @.str.76, ptr noundef nonnull %17) #18
  call void @slurm_xfree(ptr noundef nonnull %3) #18
  br label %thread-pre-split.thread

thread-pre-split.thread:                          ; preds = %13, %18, %thread-pre-split
  call void @llvm.lifetime.end.p0(i64 8, ptr nonnull %4) #18
  call void @llvm.lifetime.end.p0(i64 8, ptr nonnull %3) #18
  call void @llvm.lifetime.end.p0(i64 64, ptr nonnull %2) #18
  ret void
}